; Function Attrs: mustprogress nofree norecurse nosync nounwind willreturn memory(read, argmem: readwrite, inaccessiblemem: none) uwtable
define void @_ZN5arrow7compute11SortOptionsC2ESt6vectorINS0_7SortKeyESaIS3_EENS0_13NullPlacementE(ptr noundef nonnull writeonly align 8 captures(none) dereferenceable(44) initializes((0, 44)) %0, ptr noundef captures(none) %1, i32 noundef %2) unnamed_addr #3 align 2 {
  %4 = load ptr, ptr @_ZN5arrow7compute8internal12_GLOBAL__N_116kSortOptionsTypeE, align 8, !tbaa !32
  %5 = getelementptr inbounds nuw i8, ptr %0, i64 8
  store ptr %4, ptr %5, align 8, !tbaa !35
  store ptr getelementptr inbounds nuw inrange(-16, 16) (i8, ptr @_ZTVN5arrow7compute11SortOptionsE, i64 16), ptr %0, align 8, !tbaa !37
  %6 = getelementptr inbounds nuw i8, ptr %0, i64 16
  %7 = load ptr, ptr %1, align 8, !tbaa !59
  store ptr %7, ptr %6, align 8, !tbaa !59
  %8 = getelementptr inbounds nuw i8, ptr %0, i64 24
  %9 = getelementptr inbounds nuw i8, ptr %1, i64 8
  %10 = load ptr, ptr %9, align 8, !tbaa !62
  store ptr %10, ptr %8, align 8, !tbaa !62
  %11 = getelementptr inbounds nuw i8, ptr %0, i64 32
  %12 = getelementptr inbounds nuw i8, ptr %1, i64 16
  %13 = load ptr, ptr %12, align 8, !tbaa !63
  store ptr %13, ptr %11, align 8, !tbaa !63
  tail call void @llvm.memset.p0.i64(ptr noundef nonnull align 8 dereferenceable(24) %1, i8 0, i64 24, i1 false)
  %14 = getelementptr inbounds nuw i8, ptr %0, i64 40
  store i32 %2, ptr %14, align 8, !tbaa !64
  ret void
}